target datalayout = "e-m:e-p270:32:32-p271:32:32-p272:64:64-i64:64-i128:128-f80:128-n8:16:32:64-S128"
target triple = "x86_64-pc-linux-gnu"

@fb_zero_handle = internal global ptr null, align 8

; Function Attrs: null_pointer_is_valid sspstrong uwtable
define internal zeroext i1 @dissect_fb_zero_heur(ptr noundef %0, ptr noundef %1, ptr noundef %2, ptr noundef %3) #0 {
  %5 = alloca i1, align 1
  %6 = alloca ptr, align 8
  %7 = alloca ptr, align 8
  %8 = alloca ptr, align 8
  %9 = alloca ptr, align 8
  %10 = alloca ptr, align 8
  %11 = alloca i32, align 4
  %12 = alloca i32, align 4
  %13 = alloca i32, align 4
  %14 = alloca i32, align 4
  %15 = alloca i32, align 4
  store ptr %0, ptr %6, align 8
  store ptr %1, ptr %7, align 8
  store ptr %2, ptr %8, align 8
  store ptr %3, ptr %9, align 8
  call void @llvm.lifetime.start.p0(i64 8, ptr %10) #4
  store ptr null, ptr %10, align 8
  call void @llvm.lifetime.start.p0(i64 4, ptr %11) #4
  store i32 0, ptr %11, align 4
  call void @llvm.lifetime.start.p0(i64 4, ptr %12) #4
  call void @llvm.lifetime.start.p0(i64 4, ptr %13) #4
  call void @llvm.lifetime.start.p0(i64 4, ptr %14) #4
  %16 = load ptr, ptr %6, align 8
  %17 = call i32 @tvb_captured_length(ptr noundef %16)
  %18 = icmp ult i32 %17, 13
  br i1 %18, label %19, label %20

19:                                               ; preds = %4
  store i1 false, ptr %5, align 1
  store i32 1, ptr %15, align 4
  br label %62

20:                                               ; preds = %4
  %21 = load i32, ptr %11, align 4
  %22 = add i32 %21, 1
  store i32 %22, ptr %11, align 4
  %23 = load ptr, ptr %6, align 8
  %24 = load i32, ptr %11, align 4
  %25 = call i32 @tvb_get_ntoh24(ptr noundef %23, i32 noundef %24)
  store i32 %25, ptr %12, align 4
  %26 = load i32, ptr %11, align 4
  %27 = add i32 %26, 3
  store i32 %27, ptr %11, align 4
  %28 = load i32, ptr %11, align 4
  %29 = add i32 %28, 1
  store i32 %29, ptr %11, align 4
  %30 = load ptr, ptr %6, align 8
  %31 = load i32, ptr %11, align 4
  %32 = call i32 @tvb_get_letohl(ptr noundef %30, i32 noundef %31)
  store i32 %32, ptr %13, align 4
  %33 = load i32, ptr %11, align 4
  %34 = add i32 %33, 4
  store i32 %34, ptr %11, align 4
  %35 = load ptr, ptr %6, align 8
  %36 = load i32, ptr %11, align 4
  %37 = call i32 @tvb_get_ntohl(ptr noundef %35, i32 noundef %36)
  store i32 %37, ptr %14, align 4
  %38 = load i32, ptr %12, align 4
  %39 = icmp eq i32 %38, 5330006
  br i1 %39, label %40, label %61

40:                                               ; preds = %20
  %41 = load i32, ptr %13, align 4
  %42 = load ptr, ptr %6, align 8
  %43 = call i32 @tvb_reported_length(ptr noundef %42)
  %44 = icmp ule i32 %41, %43
  br i1 %44, label %45, label %61

45:                                               ; preds = %40
  %46 = load i32, ptr %14, align 4
  %47 = icmp eq i32 %46, 1128811599
  br i1 %47, label %51, label %48

48:                                               ; preds = %45
  %49 = load i32, ptr %14, align 4
  %50 = icmp eq i32 %49, 1397641037
  br i1 %50, label %51, label %61

51:                                               ; preds = %48, %45
  %52 = load ptr, ptr %7, align 8
  %53 = call ptr @find_or_create_conversation(ptr noundef %52)
  store ptr %53, ptr %10, align 8
  %54 = load ptr, ptr %10, align 8
  %55 = load ptr, ptr @fb_zero_handle, align 8
  call void @conversation_set_dissector(ptr noundef %54, ptr noundef %55)
  %56 = load ptr, ptr %6, align 8
  %57 = load ptr, ptr %7, align 8
  %58 = load ptr, ptr %8, align 8
  %59 = load ptr, ptr %9, align 8
  %60 = call i32 @dissect_fb_zero(ptr noundef %56, ptr noundef %57, ptr noundef %58, ptr noundef %59)
  store i1 true, ptr %5, align 1
  store i32 1, ptr %15, align 4
  br label %62

61:                                               ; preds = %48, %40, %20
  store i1 false, ptr %5, align 1
  store i32 1, ptr %15, align 4
  br label %62

62:                                               ; preds = %61, %51, %19
  call void @llvm.lifetime.end.p0(i64 4, ptr %14) #4
  call void @llvm.lifetime.end.p0(i64 4, ptr %13) #4
  call void @llvm.lifetime.end.p0(i64 4, ptr %12) #4
  call void @llvm.lifetime.end.p0(i64 4, ptr %11) #4
  call void @llvm.lifetime.end.p0(i64 8, ptr %10) #4
  %63 = load i1, ptr %5, align 1
  ret i1 %63
}