; Function Attrs: null_pointer_is_valid sspstrong uwtable
define internal noundef zeroext i1 @dissect_fb_zero_heur(ptr noundef %0, ptr noundef %1, ptr noundef %2, ptr readnone captures(none) %3) #0 {
  %5 = tail call i32 @tvb_captured_length(ptr noundef %0)
  %6 = icmp ult i32 %5, 13
  br i1 %6, label %19, label %7

7:                                                ; preds = %4
  %8 = tail call i32 @tvb_get_ntoh24(ptr noundef %0, i32 noundef 1)
  %9 = tail call i32 @tvb_get_letohl(ptr noundef %0, i32 noundef 5)
  %10 = tail call i32 @tvb_get_ntohl(ptr noundef %0, i32 noundef 9)
  %11 = icmp eq i32 %8, 5330006
  br i1 %11, label %12, label %19

12:                                               ; preds = %7
  %13 = tail call i32 @tvb_reported_length(ptr noundef %0)
  %.not = icmp ugt i32 %9, %13
  br i1 %.not, label %19, label %14

14:                                               ; preds = %12
  switch i32 %10, label %19 [
    i32 1397641037, label %15
    i32 1128811599, label %15
  ]

15:                                               ; preds = %14, %14
  %16 = tail call ptr @find_or_create_conversation(ptr noundef %1)
  %17 = load ptr, ptr @fb_zero_handle, align 8
  tail call void @conversation_set_dissector(ptr noundef %16, ptr noundef %17)
  %18 = tail call i32 @dissect_fb_zero(ptr noundef %0, ptr noundef %1, ptr noundef %2, ptr poison)
  br label %19

19:                                               ; preds = %7, %12, %14, %4, %15
  %.0 = phi i1 [ true, %15 ], [ false, %4 ], [ false, %14 ], [ false, %12 ], [ false, %7 ]
  ret i1 %.0
}